	.file	"threadpool.c"
	.text
.Ltext0:
	.globl	do_work
	.type	do_work, @function
do_work:
.LFB0:
	.file 1 "threadpool.c"
	.loc 1 45 0
	.cfi_startproc
	pushq	%rbp
	.cfi_def_cfa_offset 16
	.cfi_offset 6, -16
	movq	%rsp, %rbp
	.cfi_def_cfa_register 6
	subq	$32, %rsp
	movq	%rdi, -24(%rbp)
	.loc 1 46 0
	movq	-24(%rbp), %rax
	movq	%rax, -8(%rbp)
.L8:
	.loc 1 52 0
	movq	-8(%rbp), %rax
	movl	4(%rax), %edx
	movq	-8(%rbp), %rax
	movl	%edx, 4(%rax)
	.loc 1 53 0
	movq	-8(%rbp), %rax
	addq	$32, %rax
	movq	%rax, %rdi
	call	pthread_mutex_lock
	.loc 1 55 0
	jmp	.L2
.L4:
	.loc 1 57 0
	movq	-8(%rbp), %rax
	movl	168(%rax), %eax
	testl	%eax, %eax
	je	.L3
	.loc 1 59 0
	movq	-8(%rbp), %rax
	addq	$32, %rax
	movq	%rax, %rdi
	call	pthread_mutex_unlock
	.loc 1 60 0
	movl	$0, %edi
	call	pthread_exit
.L3:
	.loc 1 63 0
	movq	-8(%rbp), %rax
	addq	$32, %rax
	movq	%rax, %rdi
	call	pthread_mutex_unlock
	.loc 1 64 0
	movq	-8(%rbp), %rax
	leaq	32(%rax), %rdx
	movq	-8(%rbp), %rax
	addq	$72, %rax
	movq	%rdx, %rsi
	movq	%rax, %rdi
	call	pthread_cond_wait
	.loc 1 67 0
	movq	-8(%rbp), %rax
	movl	168(%rax), %eax
	testl	%eax, %eax
	je	.L2
	.loc 1 69 0
	movq	-8(%rbp), %rax
	addq	$32, %rax
	movq	%rax, %rdi
	call	pthread_mutex_unlock
	.loc 1 70 0
	movl	$0, %edi
	call	pthread_exit
.L2:
	.loc 1 55 0 discriminator 1
	movq	-8(%rbp), %rax
	movl	4(%rax), %eax
	testl	%eax, %eax
	je	.L4
	.loc 1 74 0
	movq	-8(%rbp), %rax
	movq	16(%rax), %rax
	movq	%rax, -16(%rbp)
	.loc 1 76 0
	movq	-8(%rbp), %rax
	movl	4(%rax), %eax
	leal	-1(%rax), %edx
	movq	-8(%rbp), %rax
	movl	%edx, 4(%rax)
	.loc 1 78 0
	movq	-8(%rbp), %rax
	movl	4(%rax), %eax
	testl	%eax, %eax
	jne	.L5
	.loc 1 80 0
	movq	-8(%rbp), %rax
	movq	$0, 16(%rax)
	.loc 1 81 0
	movq	-8(%rbp), %rax
	movq	$0, 24(%rax)
	jmp	.L6
.L5:
	.loc 1 85 0
	movq	-16(%rbp), %rax
	movq	16(%rax), %rdx
	movq	-8(%rbp), %rax
	movq	%rdx, 16(%rax)
.L6:
	.loc 1 88 0
	movq	-8(%rbp), %rax
	movl	4(%rax), %eax
	testl	%eax, %eax
	jne	.L7
	.loc 1 88 0 is_stmt 0 discriminator 1
	movq	-8(%rbp), %rax
	movl	168(%rax), %eax
	testl	%eax, %eax
	jne	.L7
	.loc 1 91 0 is_stmt 1
	movq	-8(%rbp), %rax
	addq	$120, %rax
	movq	%rax, %rdi
	call	pthread_cond_signal
.L7:
	.loc 1 93 0
	movq	-8(%rbp), %rax
	addq	$32, %rax
	movq	%rax, %rdi
	call	pthread_mutex_unlock
	.loc 1 94 0
	movq	-16(%rbp), %rax
	movq	(%rax), %rdx
	movq	-16(%rbp), %rax
	movq	8(%rax), %rax
	movq	%rax, %rdi
	call	*%rdx
	.loc 1 95 0
	movq	-16(%rbp), %rax
	movq	%rax, %rdi
	call	free
	.loc 1 96 0
	jmp	.L8
	.cfi_endproc
.LFE0:
	.size	do_work, .-do_work
	.section	.rodata
	.align 8
.LC0:
	.string	"Out of memory creating a new threadpool!\n"
.LC1:
	.string	"Mutex initiation error!\n"
.LC2:
	.string	"CV initiation error!\n"
.LC3:
	.string	"Thread initiation error!\n"
	.text
	.globl	create_threadpool
	.type	create_threadpool, @function
create_threadpool:
.LFB1:
	.loc 1 100 0
	.cfi_startproc
	pushq	%rbp
	.cfi_def_cfa_offset 16
	.cfi_offset 6, -16
	movq	%rsp, %rbp
	.cfi_def_cfa_register 6
	subq	$32, %rsp
	movl	%edi, -20(%rbp)
	.loc 1 105 0
	cmpl	$0, -20(%rbp)
	jle	.L10
	.loc 1 105 0 is_stmt 0 discriminator 1
	cmpl	$200, -20(%rbp)
	jle	.L11
.L10:
	.loc 1 106 0 is_stmt 1
	movl	$0, %eax
	jmp	.L12
.L11:
	.loc 1 108 0
	movl	$176, %edi
	call	malloc
	movq	%rax, -16(%rbp)
	.loc 1 109 0
	cmpq	$0, -16(%rbp)
	jne	.L13
	.loc 1 111 0
	movq	stderr(%rip), %rax
	movq	%rax, %rdx
	movl	$.LC0, %eax
	movq	%rdx, %rcx
	movl	$41, %edx
	movl	$1, %esi
	movq	%rax, %rdi
	call	fwrite
	.loc 1 112 0
	movl	$0, %eax
	jmp	.L12
.L13:
	.loc 1 115 0
	movl	-20(%rbp), %eax
	cltq
	salq	$3, %rax
	movq	%rax, %rdi
	call	malloc
	movq	%rax, %rdx
	movq	-16(%rbp), %rax
	movq	%rdx, 8(%rax)
	.loc 1 118 0
	movq	-16(%rbp), %rax
	movq	8(%rax), %rax
	testq	%rax, %rax
	jne	.L14
	.loc 1 120 0
	movq	stderr(%rip), %rax
	movq	%rax, %rdx
	movl	$.LC0, %eax
	movq	%rdx, %rcx
	movl	$41, %edx
	movl	$1, %esi
	movq	%rax, %rdi
	call	fwrite
	.loc 1 121 0
	movl	$0, %eax
	jmp	.L12
.L14:
	.loc 1 124 0
	movq	-16(%rbp), %rax
	movl	-20(%rbp), %edx
	movl	%edx, (%rax)
	.loc 1 125 0
	movq	-16(%rbp), %rax
	movl	$0, 4(%rax)
	.loc 1 126 0
	movq	-16(%rbp), %rax
	movq	$0, 16(%rax)
	.loc 1 127 0
	movq	-16(%rbp), %rax
	movq	$0, 24(%rax)
	.loc 1 128 0
	movq	-16(%rbp), %rax
	movl	$0, 168(%rax)
	.loc 1 129 0
	movq	-16(%rbp), %rax
	movl	$0, 172(%rax)
	.loc 1 132 0
	movq	-16(%rbp), %rax
	addq	$32, %rax
	movl	$0, %esi
	movq	%rax, %rdi
	call	pthread_mutex_init
	testl	%eax, %eax
	je	.L15
	.loc 1 134 0
	movq	stderr(%rip), %rax
	movq	%rax, %rdx
	movl	$.LC1, %eax
	movq	%rdx, %rcx
	movl	$24, %edx
	movl	$1, %esi
	movq	%rax, %rdi
	call	fwrite
	.loc 1 135 0
	movl	$0, %eax
	jmp	.L12
.L15:
	.loc 1 137 0
	movq	-16(%rbp), %rax
	addq	$120, %rax
	movl	$0, %esi
	movq	%rax, %rdi
	call	pthread_cond_init
	testl	%eax, %eax
	je	.L16
	.loc 1 139 0
	movq	stderr(%rip), %rax
	movq	%rax, %rdx
	movl	$.LC2, %eax
	movq	%rdx, %rcx
	movl	$21, %edx
	movl	$1, %esi
	movq	%rax, %rdi
	call	fwrite
	.loc 1 140 0
	movl	$0, %eax
	jmp	.L12
.L16:
	.loc 1 142 0
	movq	-16(%rbp), %rax
	addq	$72, %rax
	movl	$0, %esi
	movq	%rax, %rdi
	call	pthread_cond_init
	testl	%eax, %eax
	je	.L17
	.loc 1 144 0
	movq	stderr(%rip), %rax
	movq	%rax, %rdx
	movl	$.LC2, %eax
	movq	%rdx, %rcx
	movl	$21, %edx
	movl	$1, %esi
	movq	%rax, %rdi
	call	fwrite
	.loc 1 145 0
	movl	$0, %eax
	jmp	.L12
.L17:
	.loc 1 150 0
	movl	$0, -4(%rbp)
	jmp	.L18
.L20:
	.loc 1 152 0
	movq	-16(%rbp), %rax
	movq	-16(%rbp), %rdx
	movq	8(%rdx), %rdx
	movl	-4(%rbp), %ecx
	movslq	%ecx, %rcx
	salq	$3, %rcx
	leaq	(%rdx,%rcx), %rdi
	movq	%rax, %rcx
	movl	$do_work, %edx
	movl	$0, %esi
	call	pthread_create
	testl	%eax, %eax
	je	.L19
	.loc 1 154 0
	movq	stderr(%rip), %rax
	movq	%rax, %rdx
	movl	$.LC3, %eax
	movq	%rdx, %rcx
	movl	$25, %edx
	movl	$1, %esi
	movq	%rax, %rdi
	call	fwrite
	.loc 1 155 0
	movl	$0, %eax
	jmp	.L12
.L19:
	.loc 1 150 0
	addl	$1, -4(%rbp)
.L18:
	.loc 1 150 0 is_stmt 0 discriminator 1
	movl	-4(%rbp), %eax
	cmpl	-20(%rbp), %eax
	jl	.L20
	.loc 1 158 0 is_stmt 1
	movq	-16(%rbp), %rax
.L12:
	.loc 1 159 0
	leave
	.cfi_def_cfa 7, 8
	ret
	.cfi_endproc
.LFE1:
	.size	create_threadpool, .-create_threadpool
	.section	.rodata
	.align 8
.LC4:
	.string	"Out of memory creating a work struct!\n"
	.text
	.globl	dispatch
	.type	dispatch, @function
dispatch:
.LFB2:
	.loc 1 162 0
	.cfi_startproc
	pushq	%rbp
	.cfi_def_cfa_offset 16
	.cfi_offset 6, -16
	movq	%rsp, %rbp
	.cfi_def_cfa_register 6
	subq	$64, %rsp
	movq	%rdi, -40(%rbp)
	movq	%rsi, -48(%rbp)
	movq	%rdx, -56(%rbp)
	.loc 1 163 0
	movq	-40(%rbp), %rax
	movq	%rax, -8(%rbp)
	.loc 1 167 0
	movq	-8(%rbp), %rax
	movl	4(%rax), %eax
	movl	%eax, -12(%rbp)
	.loc 1 170 0
	movl	$24, %edi
	call	malloc
	movq	%rax, -24(%rbp)
	.loc 1 171 0
	cmpq	$0, -24(%rbp)
	jne	.L22
	.loc 1 173 0
	movq	stderr(%rip), %rax
	movq	%rax, %rdx
	movl	$.LC4, %eax
	movq	%rdx, %rcx
	movl	$38, %edx
	movl	$1, %esi
	movq	%rax, %rdi
	call	fwrite
	.loc 1 174 0
	jmp	.L21
.L22:
	.loc 1 177 0
	movq	-24(%rbp), %rax
	movq	-48(%rbp), %rdx
	movq	%rdx, (%rax)
	.loc 1 178 0
	movq	-24(%rbp), %rax
	movq	-56(%rbp), %rdx
	movq	%rdx, 8(%rax)
	.loc 1 179 0
	movq	-24(%rbp), %rax
	movq	$0, 16(%rax)
	.loc 1 181 0
	movq	-8(%rbp), %rax
	addq	$32, %rax
	movq	%rax, %rdi
	call	pthread_mutex_lock
	.loc 1 183 0
	movq	-8(%rbp), %rax
	movl	172(%rax), %eax
	testl	%eax, %eax
	je	.L24
	.loc 1 185 0
	movq	-24(%rbp), %rax
	movq	%rax, %rdi
	call	free
	.loc 1 186 0
	jmp	.L21
.L24:
	.loc 1 188 0
	movq	-8(%rbp), %rax
	movl	4(%rax), %eax
	testl	%eax, %eax
	jne	.L25
	.loc 1 190 0
	movq	-8(%rbp), %rax
	movq	-24(%rbp), %rdx
	movq	%rdx, 16(%rax)
	.loc 1 191 0
	movq	-8(%rbp), %rax
	movq	-24(%rbp), %rdx
	movq	%rdx, 24(%rax)
	.loc 1 192 0
	movq	-8(%rbp), %rax
	addq	$72, %rax
	movq	%rax, %rdi
	call	pthread_cond_signal
	jmp	.L26
.L25:
	.loc 1 196 0
	movq	-8(%rbp), %rax
	movq	24(%rax), %rax
	movq	-24(%rbp), %rdx
	movq	%rdx, 16(%rax)
	.loc 1 197 0
	movq	-8(%rbp), %rax
	movq	-24(%rbp), %rdx
	movq	%rdx, 24(%rax)
.L26:
	.loc 1 199 0
	movq	-8(%rbp), %rax
	movl	4(%rax), %eax
	leal	1(%rax), %edx
	movq	-8(%rbp), %rax
	movl	%edx, 4(%rax)
	.loc 1 200 0
	movq	-8(%rbp), %rax
	addq	$32, %rax
	movq	%rax, %rdi
	call	pthread_mutex_unlock
.L21:
	.loc 1 201 0
	leave
	.cfi_def_cfa 7, 8
	ret
	.cfi_endproc
.LFE2:
	.size	dispatch, .-dispatch
	.globl	destroy_threadpool
	.type	destroy_threadpool, @function
destroy_threadpool:
.LFB3:
	.loc 1 204 0
	.cfi_startproc
	pushq	%rbp
	.cfi_def_cfa_offset 16
	.cfi_offset 6, -16
	movq	%rsp, %rbp
	.cfi_def_cfa_register 6
	subq	$32, %rsp
	movq	%rdi, -24(%rbp)
	.loc 1 205 0
	movq	-24(%rbp), %rax
	movq	%rax, -8(%rbp)
	.loc 1 207 0
	movl	$0, -12(%rbp)
	.loc 1 225 0
	movq	-8(%rbp), %rax
	movq	8(%rax), %rax
	movq	%rax, %rdi
	call	free
	.loc 1 227 0
	movq	-8(%rbp), %rax
	addq	$32, %rax
	movq	%rax, %rdi
	call	pthread_mutex_destroy
	.loc 1 228 0
	movq	-8(%rbp), %rax
	addq	$120, %rax
	movq	%rax, %rdi
	call	pthread_cond_destroy
	.loc 1 229 0
	movq	-8(%rbp), %rax
	addq	$72, %rax
	movq	%rax, %rdi
	call	pthread_cond_destroy
	.loc 1 231 0
	leave
	.cfi_def_cfa 7, 8
	ret
	.cfi_endproc
.LFE3:
	.size	destroy_threadpool, .-destroy_threadpool
.Letext0:
	.file 2 "/usr/lib/gcc/x86_64-redhat-linux/4.6.3/include/stddef.h"
	.file 3 "/usr/include/bits/types.h"
	.file 4 "/usr/include/libio.h"
	.file 5 "/usr/include/bits/pthreadtypes.h"
	.file 6 "threadpool.h"
	.file 7 "/usr/include/stdio.h"
	.section	.note.GNU-stack,"",@progbits
